; Function Attrs: nounwind uwtable
define ptr @l___private_Init_Data_Array_BinSearch_0__Array_binInsertAux___rarg___lambda__2(ptr noundef %0, ptr noundef %1, ptr noundef %2, ptr noundef %3) local_unnamed_addr #1 {
  %5 = getelementptr inbounds nuw i8, ptr %0, i64 8
  %6 = load ptr, ptr %5, align 8, !tbaa !9
  %7 = ptrtoint ptr %6 to i64
  %8 = and i64 %7, 1
  %.not = icmp eq i64 %8, 0
  br i1 %.not, label %9, label %lean_inc.exit20

9:                                                ; preds = %4
  %.val.i = load i32, ptr %6, align 4, !tbaa !4
  %10 = icmp sgt i32 %.val.i, 0
  br i1 %10, label %11, label %13, !prof !11

11:                                               ; preds = %9
  %12 = add nuw i32 %.val.i, 1
  store i32 %12, ptr %6, align 4, !tbaa !4
  br label %lean_inc.exit20

13:                                               ; preds = %9
  %.not.i25 = icmp eq i32 %.val.i, 0
  br i1 %.not.i25, label %lean_inc.exit20, label %14

14:                                               ; preds = %13
  tail call void @lean_inc_ref_cold(ptr noundef nonnull %6) #4
  br label %lean_inc.exit20

lean_inc.exit20:                                  ; preds = %14, %13, %11, %4
  %15 = ptrtoint ptr %0 to i64
  %16 = and i64 %15, 1
  %.not30 = icmp eq i64 %16, 0
  br i1 %.not30, label %17, label %lean_dec.exit19

17:                                               ; preds = %lean_inc.exit20
  %18 = load i32, ptr %0, align 4, !tbaa !4
  %19 = icmp sgt i32 %18, 1
  br i1 %19, label %20, label %22, !prof !11

20:                                               ; preds = %17
  %21 = add nsw i32 %18, -1
  store i32 %21, ptr %0, align 4, !tbaa !4
  br label %lean_dec.exit19

22:                                               ; preds = %17
  %.not.i = icmp eq i32 %18, 0
  br i1 %.not.i, label %lean_dec.exit19, label %23

23:                                               ; preds = %22
  tail call void @lean_dec_ref_cold(ptr noundef nonnull %0) #4
  br label %lean_dec.exit19

lean_dec.exit19:                                  ; preds = %23, %22, %20, %lean_inc.exit20
  %24 = getelementptr inbounds nuw i8, ptr %6, i64 16
  %25 = load ptr, ptr %24, align 8, !tbaa !9
  %26 = ptrtoint ptr %25 to i64
  %27 = and i64 %26, 1
  %.not31 = icmp eq i64 %27, 0
  br i1 %.not31, label %28, label %lean_inc.exit

28:                                               ; preds = %lean_dec.exit19
  %.val.i26 = load i32, ptr %25, align 4, !tbaa !4
  %29 = icmp sgt i32 %.val.i26, 0
  br i1 %29, label %30, label %32, !prof !11

30:                                               ; preds = %28
  %31 = add nuw i32 %.val.i26, 1
  store i32 %31, ptr %25, align 4, !tbaa !4
  br label %lean_inc.exit

32:                                               ; preds = %28
  %.not.i27 = icmp eq i32 %.val.i26, 0
  br i1 %.not.i27, label %lean_inc.exit, label %33

33:                                               ; preds = %32
  tail call void @lean_inc_ref_cold(ptr noundef nonnull %25) #4
  br label %lean_inc.exit

lean_inc.exit:                                    ; preds = %33, %32, %30, %lean_dec.exit19
  br i1 %.not, label %34, label %lean_dec.exit18

34:                                               ; preds = %lean_inc.exit
  %35 = load i32, ptr %6, align 4, !tbaa !4
  %36 = icmp sgt i32 %35, 1
  br i1 %36, label %37, label %39, !prof !11

37:                                               ; preds = %34
  %38 = add nsw i32 %35, -1
  store i32 %38, ptr %6, align 4, !tbaa !4
  br label %lean_dec.exit18

39:                                               ; preds = %34
  %.not.i21 = icmp eq i32 %35, 0
  br i1 %.not.i21, label %lean_dec.exit18, label %40

40:                                               ; preds = %39
  tail call void @lean_dec_ref_cold(ptr noundef nonnull %6) #4
  br label %lean_dec.exit18

lean_dec.exit18:                                  ; preds = %40, %39, %37, %lean_inc.exit
  %41 = ptrtoint ptr %1 to i64
  %42 = and i64 %41, 1
  %.not32 = icmp eq i64 %42, 0
  br i1 %.not32, label %.critedge.i, label %43, !prof !13

43:                                               ; preds = %lean_dec.exit18
  %44 = lshr i64 %41, 1
  %45 = add nuw i64 %44, 1
  %46 = icmp sgt i64 %45, -1
  br i1 %46, label %47, label %51, !prof !11

47:                                               ; preds = %43
  %48 = shl nuw i64 %45, 1
  %49 = or disjoint i64 %48, 1
  %50 = inttoptr i64 %49 to ptr
  br label %lean_nat_add.exit

51:                                               ; preds = %43
  %52 = tail call ptr @lean_big_usize_to_nat(i64 noundef range(i64 0, -1) %45) #4
  br label %lean_nat_add.exit

.critedge.i:                                      ; preds = %lean_dec.exit18
  %53 = tail call ptr @lean_nat_big_add(ptr noundef %1, ptr noundef nonnull inttoptr (i64 3 to ptr)) #4
  br label %lean_nat_add.exit

lean_nat_add.exit:                                ; preds = %51, %47, %.critedge.i
  %.0.i = phi ptr [ %53, %.critedge.i ], [ %50, %47 ], [ %52, %51 ]
  %54 = getelementptr i8, ptr %2, i64 8
  %.val = load i64, ptr %54, align 8, !tbaa !16
  %55 = shl i64 %.val, 1
  %56 = or disjoint i64 %55, 1
  %57 = inttoptr i64 %56 to ptr
  %58 = tail call ptr @lean_array_push(ptr noundef %2, ptr noundef %3) #4
  %59 = tail call ptr @l_Array_insertIdx_loop___rarg(ptr noundef %.0.i, ptr noundef %58, ptr noundef nonnull %57) #4
  %60 = ptrtoint ptr %.0.i to i64
  %61 = and i64 %60, 1
  %.not33 = icmp eq i64 %61, 0
  br i1 %.not33, label %62, label %lean_dec.exit

62:                                               ; preds = %lean_nat_add.exit
  %63 = load i32, ptr %.0.i, align 4, !tbaa !4
  %64 = icmp sgt i32 %63, 1
  br i1 %64, label %65, label %67, !prof !11

65:                                               ; preds = %62
  %66 = add nsw i32 %63, -1
  store i32 %66, ptr %.0.i, align 4, !tbaa !4
  br label %lean_dec.exit

67:                                               ; preds = %62
  %.not.i23 = icmp eq i32 %63, 0
  br i1 %.not.i23, label %lean_dec.exit, label %68

68:                                               ; preds = %67
  tail call void @lean_dec_ref_cold(ptr noundef nonnull %.0.i) #4
  br label %lean_dec.exit

lean_dec.exit:                                    ; preds = %68, %67, %65, %lean_nat_add.exit
  %69 = tail call ptr @lean_apply_2(ptr noundef %25, ptr noundef nonnull inttoptr (i64 1 to ptr), ptr noundef %59) #4
  ret ptr %69
}